ccopy_reg
_reconstructor
p1
(cpassage.preprocessing
Tokenizer
p2
c__builtin__
object
p3
NtRp4
(dp5
S'lowercase'
p6
I01
sS'min_df'
p7
I10
sS'character'
p8
I00
sS'encoder'
p9
(dp10
Vyellow
p11
I736
sVfour
p12
I108
sVmalleus
p13
I1204
sVcontroversial
p14
I475
sVconsists
p15
I604
sVcaptain
p16
I353
sVhate
p17
I1431
sVpoorly
p18
I890
sVwhose
p19
I1219
sVparis
p20
I1430
sV340
p21
I1429
sVunder
p22
I515
sVteaching
p23
I1454
sVrise
p24
I919
sVvast
p25
I893
sVschool
p26
I232
sVconceive
p27
I920
sVcompanies
p28
I978
sVherbert
p29
I1200
sVred
p30
I147
sVstereotypical
p31
I688
sVenjoy
p32
I971
sVfarmhouse
p33
I979
sVjapanese
p34
I1232
sVsabbath
p35
I1421
sVelegant
p36
I1420
sVsecond
p37
I356
sVstreet
p38
I689
sVimplemented
p39
I537
sVeven
p40
I365
sVestablished
p41
I602
sVfingers
p42
I1236
sVlights
p43
I601
sVabove
p44
I162
sVnew
p45
I100
sVshimmery
p46
I597
sVwrapping
p47
I1238
sV47
p48
I1392
sV100
p49
I313
sVobtained
p50
I717
sVleaves
p51
I680
sVeconomics
p52
I842
sVmidway
p53
I1440
sVeyebrows
p54
I595
sVgolden
p55
I285
sVclassification
p56
I921
sVfeelings
p57
I720
sVelude
p58
I1013
sVvisible
p59
I910
sVarchaeological
p60
I476
sVmeats
p61
I834
sVcocaine
p62
I512
sVsexual
p63
I279
sVdna
p64
I483
sVwould
p65
I41
sVcall
p66
I1185
sVrecommend
p67
I871
sVstrike
p68
I1014
sVtype
p69
I549
sVtolerated
p70
I591
sVcoffins
p71
I702
sVholy
p72
I605
sVcomposite
p73
I734
sVaward
p74
I1455
sVwarm
p75
I1582
sVhole
p76
I1016
sV95
p77
I485
sVmust
p78
I112
sVabundance
p79
I382
sV1992
p80
I250
sVword
p81
I1568
sVrights
p82
I1190
sV1999
p83
I490
sV1998
p84
I561
sVtemperatures
p85
I1448
sVmy
p86
I875
sVexample
p87
I679
sVfortress
p88
I670
sVgive
p89
I240
sVfoods
p90
I449
sVlancelot
p91
I1444
sVkeep
p92
I507
sVend
p93
I1024
sVprovide
p94
I610
sVfeature
p95
I612
sVmarch
p96
I261
sVhow
p97
I198
sVkewpie
p98
I613
sVtympanic
p99
I1166
sVoceans
p100
I906
sVafter
p101
I172
sVwrong
p102
I195
sVjumping
p103
I1291
sVsparkles
p104
I614
sVpurchase
p105
I1172
sVnagasaki
p106
I1293
sVschneider
p107
I960
sVcarotenoid
p108
I735
sVchert
p109
I967
sVenter
p110
I1010
sVwing
p111
I489
sVover
p112
I86
sVunderside
p113
I928
sVkeyboard
p114
I1402
sVtomistoma
p115
I703
sVbefore
p116
I219
sV,
I7
sVwriting
p117
I1254
sVdestroyed
p118
I837
sVfig
p119
I1396
sVhidden
p120
I398
sVversus
p121
I710
sVthen
p122
I111
sVthem
p123
I185
sVwidely
p124
I712
sVcombination
p125
I713
sVsimilar
p126
I1373
sVrafik
p127
I1529
sVthey
p128
I56
sVschools
p129
I156
sVtourism
p130
I1388
sVpolyana
p131
I1033
sVcathars
p132
I620
sVoxygen
p133
I1386
sVbrightness
p134
I424
sVarrested
p135
I946
sVchoir
p136
I1203
sVbone
p137
I385
sVdawr
p138
I976
sVseries
p139
I237
sVtrain
p140
I1580
sVthymine
p141
I500
sVspider
p142
I241
sVused
p143
I44
sVstealing
p144
I938
sVdawn
p145
I974
sVmedicine
p146
I945
sVgot
p147
I1269
sVmillions
p148
I1127
sVwritten
p149
I835
sVthreatened
p150
I598
sVsensors
p151
I1264
sVcertified
p152
I715
sVcreated
p153
I1564
sVstarts
p154
I498
sVdays
p155
I258
sVcreates
p156
I1561
sVaspire
p157
I536
sVconvection
p158
I1263
sVuser
p159
I144
sValready
p160
I130
sVeconomists
p161
I429
sVgrade
p162
I1259
sVparodying
p163
I771
sVcomic
p164
I1186
sVmercury
p165
I961
sVtimothy
p166
I728
sVservice
p167
I573
sVpsychotic
p168
I882
sVtop
p169
I216
sVapproximately
p170
I440
sVrates
p171
I378
sVtoo
p172
I167
sVjohn
p173
I327
sVtook
p174
I444
sVincus
p175
I1140
sVhelen
p176
I1549
sVshortly
p177
I1214
sVsulphur
p178
I1547
sVdistance
p179
I1546
sVhandcuffs
p180
I694
sVlikely
p181
I987
sVmatter
p182
I742
sVspeaking
p183
I989
sVfeeling
p184
I514
sVacquisition
p185
I330
sVseminal
p186
I1353
sVhue
p187
I687
sVendocrinology
p188
I788
sVmodern
p189
I375
sVmind
p190
I1162
sVseen
p191
I611
sVseem
p192
I1569
sVtells
p193
I1273
sVcontents
p194
I785
sVtraditionally
p195
I1339
sV1969
p196
I1599
sVscriptures
p197
I1598
sV1964
p198
I1597
sVlatter
p199
I635
sV1967
p200
I934
sV-
I21
sVisolated
p201
I402
sVoriented
p202
I697
sVsubjects
p203
I1294
sVtransmit
p204
I667
sVtheobroma
p205
I1003
sVblouse
p206
I1417
sVthough
p207
I251
sVcrocin
p208
I675
sVregular
p209
I792
sVunderfur
p210
I669
sVletter
p211
I379
sVredressing
p212
I660
sVepisode
p213
I800
sVadenine
p214
I520
sVmedical
p215
I1286
sVpoints
p216
I983
sVconfederation
p217
I1579
sVsaying
p218
I1284
sVsignatures
p219
I574
sVpope
p220
I1282
sVchalybeatus
p221
I982
sVlabels
p222
I666
sVcolors
p223
I346
sS'PAD'
p224
I0
sVmusicals
p225
I924
sVearth
p226
I315
sVtouches
p227
I727
sVconsciousness
p228
I1164
sVsugar
p229
I795
sVgeologist
p230
I538
sVtouched
p231
I674
sVrich
p232
I721
sVdo
p233
I1277
sVexports
p234
I784
sVfossil
p235
I799
sVde
p236
I1536
sVdc
p237
I1144
sVda
p238
I554
sVhaiti
p239
I1535
sVcovering
p240
I851
sVfertility
p241
I249
sVleasing
p242
I1500
sVobserves
p243
I387
sVtesting
p244
I939
sVobserved
p245
I184
sVdepends
p246
I798
sVresult
p247
I940
sVfail
p248
I419
sVbest
p249
I1216
sVficus
p250
I1105
sVsaid
p251
I120
sVcapacity
p252
I943
sVaway
p253
I494
sVartificial
p254
I312
sVunable
p255
I1490
sVhandwritten
p256
I548
sVwe
p257
I180
sVloose
p258
I1229
sVterms
p259
I1211
sVhowever
p260
I146
sVwear
p261
I1471
sVtikrit
p262
I1053
sVamniotes
p263
I1484
sVprotect
p264
I1483
sVreported
p265
I1409
sVcountry
p266
I88
sVagainst
p267
I303
sVplayers
p268
I1011
sVplanned
p269
I425
sVernst
p270
I1145
sVgenus
p271
I288
sVsoutheastern
p272
I473
sVhad
p273
I72
sVconference
p274
I394
sViraq
p275
I1240
sVunion
p276
I289
sVthree
p277
I114
sVbeen
p278
I71
sV.
I3
sVmuch
p279
I1020
sVstadium
p280
I1177
sVbasic
p281
I201
sVdry
p282
I1239
sVlife
p283
I260
sVeastern
p284
I504
sVboohbahs
p285
I716
sVchild
p286
I319
sV160
p287
I1023
sVcensored
p288
I639
sVeconomies
p289
I416
sVair
p290
I1226
sVnear
p291
I174
sVteachers
p292
I714
sVchanged
p293
I149
sVplayed
p294
I413
sVexceptionally
p295
I888
sVis
p296
I14
sVit
p297
I24
sVsoils
p298
I1027
sVtissue
p299
I1224
sVin
p300
I11
sVmotivating
p301
I1028
sVmouse
p302
I106
sVif
p303
I38
sVcontaining
p304
I464
sVdescent
p305
I502
sVthings
p306
I1516
sVmake
p307
I92
sVcolonies
p308
I307
sVseveral
p309
I204
sVpeaks
p310
I955
sVcatholic
p311
I311
sVsaddam
p312
I1233
sVrain
p313
I1512
sVkin
p314
I1034
sVcharacters
p315
I1213
sVthoughts
p316
I954
sVpracticed
p317
I523
sVprograms
p318
I580
sV1977
p319
I1507
sVocean
p320
I953
sVmaterials
p321
I383
sVmother
p322
I707
sVthe
p323
I8
sVleft
p324
I139
sVjust
p325
I148
sVhearst
p326
I932
sVfinancially
p327
I1506
sVhuman
p328
I132
sVbrassiere
p329
I1509
sVthick
p330
I585
sVcharacter
p331
I332
sVtopical
p332
I1135
sVn
I336
sVeasy
p333
I1133
sVhas
p334
I50
sVescapologists
p335
I706
sVbands
p336
I168
sVbreaks
p337
I1343
sVpossible
p338
I572
sVboxes
p339
I705
sVbackground
p340
I432
sVhighly
p341
I911
sVhairless
p342
I634
sVeroded
p343
I1351
sVhunt
p344
I1525
sVspecific
p345
I723
sVright
p346
I157
sVpeople
p347
I54
sVsends
p348
I1362
sVborn
p349
I213
sVproductions
p350
I1328
sVescape
p351
I113
sVintellect
p352
I1154
sVnobleman
p353
I1315
sVtheatrical
p354
I1313
sVdense
p355
I632
sVfor
p356
I18
sVperiphery
p357
I1310
sVpeek
p358
I1474
sVpost
p359
I1307
sVundercroft
p360
I282
sVmonths
p361
I918
sVsurround
p362
I1403
sVhorizon
p363
I381
sVcontains
p364
I878
sVcivil
p365
I244
sVdown
p366
I1198
sVserfs
p367
I1026
sVinspected
p368
I625
sVway
p369
I57
sVwas
p370
I19
sVwar
p371
I335
sVwap
p372
I825
sVhead
p373
I1326
sVform
p374
I99
sVbatman
p375
I1199
sVbecoming
p376
I466
sVfireworks
p377
I1320
sVtrue
p378
I295
sVunsuccessful
p379
I872
sVmaximum
p380
I1019
sVvatican
p381
I1329
sVjuvenile
p382
I867
sVqin
p383
I1018
sVtournament
p384
I1299
sVcovers
p385
I1146
sVevidence
p386
I469
sVkingdom
p387
I450
sVno
p388
I107
sVwhereas
p389
I630
sVtip
p390
I1314
sVrepublic
p391
I862
sVdigital
p392
I566
sVnp
p393
I731
sVdevelopers
p394
I576
sVsmell
p395
I1350
sVdied
p396
I463
sVtogether
p397
I1340
sVtime
p398
I78
sVserious
p399
I225
sVsongs
p400
I137
sVdance
p401
I701
sVcrocodile
p402
I711
sVskin
p403
I853
sVsuicide
p404
I1156
sVdisorders
p405
I860
sVtechnique
p406
I374
sV1947
p407
I1157
sViraqi
p408
I1035
sVpermanently
p409
I1593
sVweakening
p410
I1595
sVstabilizing
p411
I1596
sVbrown
p412
I1571
sVfederation
p413
I1538
sVembark
p414
I1325
sVtanks
p415
I699
sVartwork
p416
I297
sVblast
p417
I1539
sVexact
p418
I1055
sVgovernments
p419
I480
sVpresented
p420
I270
sVdid
p421
I161
sVdie
p422
I905
sVp
I700
sVdomestically
p423
I1050
sVteam
p424
I642
sVoccurrence
p425
I1123
sVerotic
p426
I676
sVcost
p427
I1049
sVbacterial
p428
I423
sVport
p429
I909
sVappear
p430
I293
sVrome
p431
I292
sVcurrent
p432
I267
sVvandalized
p433
I1047
sVinternational
p434
I1008
sVexplosion
p435
I1559
sVhairs
p436
I643
sVfrench
p437
I397
sVwater
p438
I235
sVgroups
p439
I151
sValong
p440
I291
sVappears
p441
I1565
sVchange
p442
I644
sVsericeus
p443
I1043
sVhusband
p444
I1435
sVtrial
p445
I1136
sVjaw
p446
I1223
sVusually
p447
I155
sVlocomotion
p448
I1298
sVanoxic
p449
I1039
sVmerely
p450
I1139
sVdude
p451
I1333
sVwrongs
p452
I645
sVlive
p453
I543
sVtheoretical
p454
I684
sVentrance
p455
I1184
sVclicking
p456
I1345
sVpiano
p457
I1570
sVorganizations
p458
I526
sVsoul
p459
I302
sVdistricts
p460
I693
sVcan
p461
I109
sV9th
p462
I472
sVfollowing
p463
I395
sVmaking
p464
I426
sVcentrally
p465
I439
sVhiroshima
p466
I1308
sVdeceased
p467
I980
sVrebuffed
p468
I1479
sVfigure
p469
I1375
sVdecember
p470
I364
sVtopic
p471
I462
sVheard
p472
I1400
sVcelsius
p473
I1401
sVhydrogen
p474
I211
sVdivided
p475
I331
sVbonds
p476
I1371
sV1
I121
sVsunday
p477
I1374
sVpure
p478
I1169
sVspeaks
p479
I812
sVsecures
p480
I1323
sVnevis
p481
I1370
sVmay
p482
I42
sVsouthern
p483
I221
sVapplications
p484
I246
sVdesigned
p485
I1173
sVcourses
p486
I737
sVdate
p487
I358
sVsuch
p488
I169
sVstapes
p489
I1175
sVcompatibility
p490
I443
sVman
p491
I214
sVnatural
p492
I212
sVneck
p493
I447
sVnationalistic
p494
I519
sVhurwicz
p495
I420
sVso
p496
I73
sVdeposit
p497
I901
sVafrican
p498
I518
sVkurt
p499
I885
sVtalk
p500
I1218
sVwishing
p501
I695
sVyears
p502
I349
sVflayed
p503
I1004
sVnitrogen
p504
I1453
sVpitch
p505
I1155
sVstill
p506
I117
sVworship
p507
I1458
sVpolice
p508
I985
sVencompasses
p509
I1462
sVbroadcasts
p510
I1183
sVhanna
p511
I1581
sVmain
p512
I474
sVhappened
p513
I309
sVdevastated
p514
I1464
sVevolution
p515
I482
sVnation
p516
I150
sVhalf
p517
I1327
sVnot
p518
I55
sVnow
p519
I310
sVkilled
p520
I1316
sVconcerto
p521
I1439
sVterm
p522
I1176
sVname
p523
I80
sVdrop
p524
I884
sVrock
p525
I998
sVquarter
p526
I1412
sVconcerts
p527
I357
sVfired
p528
I996
sVelephants
p529
I730
sVyear
p530
I322
sVgirl
p531
I1361
sValbum
p532
I850
sVliving
p533
I992
sVshown
p534
I805
sVaccomplish
p535
I991
sVintercourse
p536
I1355
sVspace
p537
I849
sVoklahoma
p538
I1408
sVreceiving
p539
I896
sVcorrect
p540
I460
sVshows
p541
I988
sVearlier
p542
I1336
sS'END'
p543
I1
sVtheory
p544
I129
sVcastile
p545
I1428
sVmillion
p546
I339
sVincentives
p547
I417
sVisotope
p548
I362
sVrecordings
p549
I1206
sVtraining
p550
I691
sVlanguage
p551
I306
sVbritish
p552
I272
sVmotion
p553
I1297
sVturn
p554
I1107
sVplace
p555
I345
sVundesirable
p556
I594
sVfrequent
p557
I651
sVfirst
p558
I75
sVinterneuron
p559
I650
sVone
p560
I58
sVlandhurst
p561
I1425
sVsoaring
p562
I1424
sVlong
p563
I85
sVgeorge
p564
I1167
sVaccommodate
p565
I1488
sVsize
p566
I1002
sVcity
p567
I210
sVbahamas
p568
I1415
sVindicate
p569
I224
sV2
I273
sVwhite
p570
I278
sVstructures
p571
I1410
sVfriend
p572
I698
sVnutrition
p573
I807
sVeyes
p574
I647
sVmostly
p575
I277
sVthat
p576
I15
sVpittsburgh
p577
I1466
sVseason
p578
I1465
sVcontinuous
p579
I428
sVreleased
p580
I124
sVoccurring
p581
I359
sVthan
p582
I65
sV11
p583
I1447
sV13
p584
I455
sV12
p585
I557
sVimpractical
p586
I963
sVhammocks
p587
I1441
sV18
p588
I1366
sVrequire
p589
I300
sVwere
p590
I67
sVpoisoning
p591
I433
sVfruity
p592
I1367
sVbrowser
p593
I1335
sVand
p594
I10
sVillness
p595
I1168
sVsay
p596
I641
sVsaw
p597
I681
sVany
p598
I1205
sVwcw
p599
I1398
sVgreek
p600
I1395
sVaside
p601
I682
sVsnout
p602
I274
sVendangered
p603
I640
sVtake
p604
I175
sVattempted
p605
I1496
sVresembling
p606
I732
sVsure
p607
I1159
sValtered
p608
I626
sVpaid
p609
I1086
sVkiamichi
p610
I1378
sVforever
p611
I1101
sVradioactive
p612
I384
sVespecially
p613
I627
sVconsidered
p614
I729
sVlater
p615
I1348
sVclearing
p616
I629
sVtypically
p617
I912
sVlaws
p618
I1088
sVdetective
p619
I1134
sVcobra
p620
I1060
sVconvoy
p621
I1562
sVshow
p622
I205
sVdiscovered
p623
I126
sVground
p624
I1092
sVxml
p625
I816
sVtreasure
p626
I1363
sVenough
p627
I199
sVonly
p628
I79
sVenthusiasm
p629
I1095
sVdispute
p630
I917
sVpsychiatrist
p631
I326
sVgrossing
p632
I1096
sVbaghdad
p633
I1312
sVdye
p634
I725
sVawaiting
p635
I1137
sVprime
p636
I287
sVmiles
p637
I457
sVwhere
p638
I200
sVvillage
p639
I1381
sVphysically
p640
I488
sVseat
p641
I1319
sVplanet
p642
I1591
sVvoluntary
p643
I1080
sVcompounds
p644
I883
sVsites
p645
I819
sVlabel
p646
I881
sVspoons
p647
I1590
sV3
I207
sVbetween
p648
I62
sVjacobs
p649
I1390
sVkilling
p650
I1586
sVdates
p651
I458
sVmany
p652
I46
sVs
I4
sVpresent
p653
I334
sVcomes
p654
I1311
sVafterwards
p655
I1304
sVcancer
p656
I821
sVcolor
p657
I418
sVcolony
p658
I1068
sVperiod
p659
I822
sVants
p660
I1330
sVmaintained
p661
I827
sVcustody
p662
I1163
sVmath
p663
I823
sVbetter
p664
I870
sVunusual
p665
I824
sVdyslexia
p666
I1071
sVdyslexic
p667
I1072
sVtropical
p668
I340
sVvotive
p669
I1077
sVdeposited
p670
I1078
sVlinguistic
p671
I876
sVwants
p672
I308
sVdirection
p673
I1100
sVbionics
p674
I501
sVformed
p675
I354
sVregency
p676
I1481
sVobserve
p677
I388
sVminister
p678
I390
sVtamil
p679
I1505
sVweeks
p680
I1255
sVthose
p681
I142
sVcase
p682
I253
sVthese
p683
I64
sVtribal
p684
I497
sVcash
p685
I1115
sVsituation
p686
I1143
sVsoil
p687
I1110
sVmiddle
p688
I386
sVbags
p689
I704
sVdifferent
p690
I104
sVsynagogue
p691
I1508
sVdamor
p692
I1113
sVauthor
p693
I1368
sVsame
p694
I452
sVgentlemen
p695
I1262
sVhtml
p696
I831
sVevents
p697
I1124
sVassist
p698
I1510
sVpersons
p699
I528
sVrunning
p700
I496
sVlute
p701
I1517
sVclimbing
p702
I957
sVtheater
p703
I959
sVmarkup
p704
I818
sVroughly
p705
I228
sVwithout
p706
I661
sVsummer
p707
I1523
sVtransmitting
p708
I1117
sVmoney
p709
I1225
sVactress
p710
I1532
sVlavish
p711
I966
sVkill
p712
I968
sVharrison
p713
I456
sVtouch
p714
I733
sVspeed
p715
I568
sVradiometric
p716
I380
sVdeath
p717
I405
sVgeological
p718
I1112
sVrole
p719
I276
sVstyles
p720
I677
sVaround
p721
I218
sVdiscontinue
p722
I481
sVdark
p723
I1114
sVboohball
p724
I678
sVtraffic
p725
I1118
sVusing
p726
I141
sVlady
p727
I683
sVmoe
p728
I794
sVruled
p729
I663
sVfossils
p730
I796
sVpole
p731
I1090
sVeither
p732
I316
sVserved
p733
I1480
sVvoluntarily
p734
I1122
sVjews
p735
I1485
sVdoll
p736
I622
sValternately
p737
I1384
sVnucleic
p738
I1489
sVcomposers
p739
I1492
sVprovided
p740
I1495
sVstrangling
p741
I1075
sVhighest
p742
I1497
sVextensively
p743
I1498
sVlegal
p744
I926
sVprovides
p745
I686
sVbusiness
p746
I317
sVseconds
p747
I696
sVequivalent
p748
I534
sVbroken
p749
I952
sV1939
p750
I1147
sVrefers
p751
I1279
sVtuning
p752
I586
sVcomparison
p753
I372
sVconducting
p754
I1575
sVcentral
p755
I584
sVof
p756
I9
sVcapable
p757
I486
sVmeaning
p758
I1577
sVact
p759
I969
sVor
p760
I17
sVclimates
p761
I1416
sVbarrels
p762
I296
sVladies
p763
I1289
sVburning
p764
I193
sVcommunication
p765
I636
sVrevolutionaries
p766
I499
sVdetermine
p767
I1292
sVparties
p768
I337
sVnowadays
p769
I726
sVyour
p770
I435
sVher
p771
I152
sVarea
p772
I1271
sVthere
p773
I70
sVworshippers
p774
I1542
sVdumping
p775
I1544
sVcomplete
p776
I1248
sVfundamentals
p777
I621
sVamongst
p778
I1553
sVprinciples
p779
I1094
sVmice
p780
I290
sVtrying
p781
I958
sVwith
p782
I23
sVcomics
p783
I619
sVad
p784
I1091
sVdeep
p785
I437
sVan
p786
I28
sVas
p787
I25
sVlichen
p788
I268
sVat
p789
I51
sVpolitics
p790
I941
sVfilm
p791
I220
sVagain
p792
I708
sVerecting
p793
I1070
sVevent
p794
I1594
sVbremer
p795
I1252
sV5
I1268
sVyou
p796
I128
sVtrash
p797
I1265
sVpolar
p798
I616
sVoneself
p799
I392
sVperils
p800
I718
sVstudents
p801
I719
sVimportant
p802
I119
sVpeak
p803
I937
sVfinals
p804
I1256
sVbuilding
p805
I740
sVcurve
p806
I1399
sVburrow
p807
I301
sVu
I1251
sVresembles
p808
I1404
sVoverseas
p809
I1059
sVall
p810
I196
sVduplicates
p811
I1272
sVfounded
p812
I436
sVdeadline
p813
I360
sVmigrates
p814
I1295
sVreligious
p815
I477
sVchildren
p816
I263
sVoverlying
p817
I951
sVformer
p818
I226
sVto
p819
I13
sVfoster
p820
I1405
sVpreserved
p821
I869
sVtamils
p822
I1407
sVwoman
p823
I1423
sVreturned
p824
I1065
sVsong
p825
I606
sVvery
p826
I724
sVcandid
p827
I1446
sVdecide
p828
I367
sVfall
p829
I1450
sVdifference
p830
I170
sVcastilian
p831
I1452
sV`
I31
sVlarge
p832
I243
sVsand
p833
I1074
sVsmall
p834
I116
sV20th
p835
I347
sVrats
p836
I1556
sVeffigies
p837
I1215
sV190
p838
I1460
sVpast
p839
I1076
sVrate
p840
I1081
sVtitles
p841
I593
sVfurther
p842
I281
sVsituated
p843
I1210
sVwhat
p844
I115
sVsun
p845
I368
sVbrief
p846
I596
sVemotions
p847
I841
sVversion
p848
I527
sVscientists
p849
I1120
sVlearned
p850
I590
sVpublic
p851
I138
sVedited
p852
I599
sVfull
p853
I600
sViran
p854
I1418
sVlitters
p855
I1191
sVasphyxiation
p856
I889
sVanswers
p857
I407
sVhours
p858
I294
sVstrong
p859
I389
sVpublishes
p860
I1195
sVspeeches
p861
I886
sVahead
p862
I603
sVlosses
p863
I1106
sVallows
p864
I709
sVprior
p865
I1108
sVadvertising
p866
I692
sVelongated
p867
I685
sVvia
p868
I1436
sVfamily
p869
I321
sVstraitjackets
p870
I690
sVtoys
p871
I879
sV0
I166
sVdestination
p872
I916
sVpetroleum
p873
I801
sVtwo
p874
I421
sV6
I215
sVmarkets
p875
I1041
sVmore
p876
I66
sVcompany
p877
I895
sVimpart
p878
I759
sVparticular
p879
I259
sVknown
p880
I60
sVtown
p881
I188
sVscience
p882
I766
sVnine
p883
I894
sVevolved
p884
I1433
sVlearn
p885
I1121
sVmale
p886
I1209
sVspecialized
p887
I540
sVhistory
p888
I203
sVbeautiful
p889
I1426
sVstates
p890
I262
sVminimum
p891
I1022
sVsalty
p892
I944
sVpurchased
p893
I1111
sVsense
p894
I1437
sVlibertarian
p895
I1119
sVspecies
p896
I90
sVmeandered
p897
I1467
sV!
I1220
sVinformation
p898
I230
sVgoal
p899
I1180
sVrather
p900
I1125
sVimminent
p901
I508
sVbreaking
p902
I1102
sVglowing
p903
I1459
sVplant
p904
I863
sVyasnaya
p905
I1073
sVubiquitous
p906
I430
sVtried
p907
I1189
sValgebra
p908
I844
sVfungus
p909
I874
sVfc
p910
I1182
sVa
I12
sVshort
p911
I247
sVchiefly
p912
I511
sVresemble
p913
I1369
sVprefers
p914
I1061
sVcoal
p915
I845
sVtolstoy
p916
I1099
sVhelp
p917
I135
sVseptember
p918
I567
sVdeveloped
p919
I231
sVinstalled
p920
I1142
sVheld
p921
I741
sVthrough
p922
I93
sVcommitted
p923
I352
sVexistence
p924
I1179
sVits
p925
I40
sV24
p926
I931
sVstyle
p927
I222
sV27
p928
I1201
sV21
p929
I1387
sV22
p930
I1385
sVactually
p931
I617
sVsymptoms
p932
I942
sVmight
p933
I533
sVcrawls
p934
I782
sVgood
p935
I143
sVreturn
p936
I1267
sVfood
p937
I118
sVanticipated
p938
I1085
sVcompound
p939
I929
sVassociation
p940
I1089
sVdesignation
p941
I1558
sValways
p942
I847
sVlevel
p943
I1245
sVrefresh
p944
I1249
sValtering
p945
I609
sVpredators
p946
I949
sVfound
p947
I127
sVheavy
p948
I256
sVreactions
p949
I786
sVengland
p950
I454
sVpirates
p951
I1270
sVhouse
p952
I495
sVfish
p953
I217
sVball
p954
I1600
sVconnect
p955
I581
sVoperation
p956
I1082
sVbeyond
p957
I1141
sVinsurance
p958
I1083
sVreally
p959
I1592
sVrealising
p960
I1062
sVresearch
p961
I1063
sV7
I1150
sVcyclone
p962
I1285
sVfriday
p963
I578
sVextraordinary
p964
I1281
sVreason
p965
I1066
sVheroin
p966
I529
sVgravelly
p967
I1064
sVmaths
p968
I791
sVowners
p969
I1149
sVrevival
p970
I1469
sVamerican
p971
I575
sVtwenty
p972
I399
sVundergo
p973
I950
sVexhibited
p974
I1276
sVmajor
p975
I177
sVradical
p976
I583
sVnumber
p977
I68
sVtango
p978
I1069
sVreptiliomorphs
p979
I1499
sVstory
p980
I181
sVheads
p981
I624
sVscript
p982
I1222
sVleading
p983
I446
sVstorm
p984
I672
sVconspirators
p985
I664
sVlisted
p986
I914
sVrelationship
p987
I751
sVwrestling
p988
I1566
sVdoctors
p989
I935
sValbums
p990
I665
sVexplodes
p991
I1486
sVkind
p992
I933
sVb
I1301
sVgavial
p993
I755
sVgotten
p994
I757
sVdetermined
p995
I1116
sVimports
p996
I787
sVdemokratia
p997
I1473
sVsubstantial
p998
I403
sVmountain
p999
I922
sVdepending
p1000
I1151
sVself
p1001
I1152
sVscotland
p1002
I777
sValso
p1003
I34
sVinternal
p1004
I623
sVplay
p1005
I1231
sVadded
p1006
I1524
sVenglish
p1007
I159
sVunused
p1008
I412
sVmost
p1009
I47
sVplan
p1010
I227
sVnothing
p1011
I183
sV78
p1012
I1522
sVmobile
p1013
I1227
sVkm
p1014
I1514
sVtraditional
p1015
I570
sVamphibian
p1016
I1513
sVvelocity
p1017
I555
sVphysics
p1018
I414
sVnobility
p1019
I1406
sVsector
p1020
I552
sVclaudius
p1021
I1338
sVhyper
p1022
I830
sVparticularly
p1023
I1103
sVobligations
p1024
I868
sVcarles
p1025
I1531
sVfont
p1026
I828
sVfine
p1027
I234
sVnorthern
p1028
I393
sVnervous
p1029
I659
sVwrites
p1030
I1533
sVless
p1031
I298
sVbeing
p1032
I165
sV8
I1126
sVlochaber
p1033
I1576
sVhis
p1034
I37
sVfamous
p1035
I1472
sVlongest
p1036
I1572
sVclosely
p1037
I1573
sVduring
p1038
I77
sVhim
p1039
I125
sVgenerally
p1040
I637
sVcommon
p1041
I192
sVx
I509
sVriver
p1042
I275
sVwrote
p1043
I350
sVscenery
p1044
I859
sVculture
p1045
I305
sVschizophrenia
p1046
I936
sVare
p1047
I20
sV11th
p1048
I451
sVdipodomyinae
p1049
I1587
sV#
I1153
sVtermites
p1050
I1346
sVbinds
p1051
I1543
sVhalves
p1052
I1540
sVvarious
p1053
I245
sVprobably
p1054
I1306
sVavailable
p1055
I569
sVeuropa
p1056
I1097
sVcreating
p1057
I803
sVmissing
p1058
I484
sVsole
p1059
I1300
sVdistinguish
p1060
I1129
sVboth
p1061
I257
sVc
I1557
sVlast
p1062
I1560
sVforeign
p1063
I1087
sVroman
p1064
I453
sVbecame
p1065
I628
sVvolcanic
p1066
I915
sVpoint
p1067
I532
sVreasons
p1068
I280
sVloan
p1069
I1138
sVcommunity
p1070
I1341
sVsimply
p1071
I238
sVlinux
p1072
I197
sVthroughout
p1073
I314
sVweaving
p1074
I1357
sVraise
p1075
I1193
sVlizards
p1076
I1391
sVpolitical
p1077
I160
sVdue
p1078
I133
sVireland
p1079
I396
sVpm
p1080
I1093
sVdialogue
p1081
I814
sVrepayments
p1082
I1376
sVchampion
p1083
I1322
sVgas
p1084
I810
sV1862
p1085
I1079
sVplants
p1086
I233
sVfur
p1087
I173
sVlook
p1088
I1347
sVsolid
p1089
I1067
sVbatch
p1090
I1309
sVwhile
p1091
I97
sVsocialism
p1092
I1192
sVreplaced
p1093
I1461
sVbehavior
p1094
I808
sV32
p1095
I1358
sVmitchell
p1096
I565
sVcages
p1097
I768
sVreal
p1098
I1006
sVcentury
p1099
I123
sVbipedal
p1100
I1318
sVneurons
p1101
I648
sVitaly
p1102
I1305
sVchoking
p1103
I892
sVbelong
p1104
I1414
sVcopying
p1105
I806
sV9
I544
sVdevelopment
p1106
I1356
sVliterature
p1107
I897
sVflows
p1108
I1427
sVpurpose
p1109
I103
sVrecent
p1110
I459
sVearly
p1111
I510
sVlower
p1112
I833
sVtask
p1113
I948
sVsalvation
p1114
I1048
sVfuxi
p1115
I984
sVmiddlebridge
p1116
I1432
sVperson
p1117
I145
sVmandriva
p1118
I900
sVorganization
p1119
I411
sV1783
p1120
I545
sVpedieos
p1121
I1365
sVmalayan
p1122
I763
sVeffector
p1123
I654
sViero
p1124
I899
sVatomic
p1125
I1344
sVworld
p1126
I131
sVcontinent
p1127
I898
sV$
I993
sVsignals
p1128
I588
sVaustralia
p1129
I995
sVvictims
p1130
I1334
sVbig
p1131
I164
sVshowing
p1132
I656
sVgame
p1133
I551
sVsubfamily
p1134
I1438
sVcollect
p1135
I1317
sVarthur
p1136
I891
sVindividuals
p1137
I178
sVoften
p1138
I53
sVsome
p1139
I33
sVmetres
p1140
I1332
sVlips
p1141
I769
sVtowards
p1142
I1530
sVpale
p1143
I550
sVscale
p1144
I1349
sVdescribing
p1145
I1463
sVtwinkle
p1146
I1181
sVdecision
p1147
I208
sVdating
p1148
I363
sV1528
p1149
I556
sVt
I400
sVbe
p1150
I26
sVrun
p1151
I1324
sVbc
p1152
I470
sVagreement
p1153
I408
sVnowhere
p1154
I1487
sVby
p1155
I16
sVtogetherness
p1156
I1457
sVgoods
p1157
I809
sVrange
p1158
I239
sVcanvassing
p1159
I652
sVterrorists
p1160
I517
sVinto
p1161
I265
sVwithin
p1162
I95
sVservices
p1163
I1188
sVrows
p1164
I653
sVquestion
p1165
I773
sVhandles
p1166
I1443
sVsubmit
p1167
I1354
sV:
I76
sVhimself
p1168
I369
sVcollapsed
p1169
I1442
sVboys
p1170
I902
sVproperly
p1171
I535
sVedomite
p1172
I465
sVburrows
p1173
I1098
sVup
p1174
I1178
sVzha
p1175
I973
sVaccustomed
p1176
I972
sVchelsea
p1177
I1174
sVcalled
p1178
I61
sVoverland
p1179
I975
sVwarning
p1180
I1364
sVcotton
p1181
I811
sVrainbow
p1182
I438
sV%
I341
sVamounts
p1183
I209
sVsaffron
p1184
I776
sVforge
p1185
I542
sVbacke
p1186
I1165
sVarithmetic
p1187
I813
sVexplaining
p1188
I422
sVinsect
p1189
I779
sVallowing
p1190
I783
sVdesert
p1191
I649
sVstructure
p1192
I351
sVago
p1193
I140
sVland
p1194
I206
sVe
I579
sValgorithm
p1195
I775
sVage
p1196
I1007
sVvehicles
p1197
I815
sV2000
p1198
I524
sVsummit
p1199
I1476
sVfresh
p1200
I738
sVonce
p1201
I1202
sVessay
p1202
I1037
sVcode
p1203
I564
sVgang
p1204
I1038
sVgo
p1205
I646
sVgases
p1206
I1468
sVcontacted
p1207
I762
sVyoung
p1208
I96
sVarid
p1209
I1470
sVlate
p1210
I1380
sVresources
p1211
I559
sVgarden
p1212
I1567
sVtelling
p1213
I1042
sVcasineria
p1214
I1382
sVmediterranean
p1215
I525
sVjump
p1216
I530
sVfold
p1217
I1337
sVtraveling
p1218
I1044
sVacid
p1219
I1563
sVcell
p1220
I658
sV;
I83
sVnails
p1221
I739
sVbody
p1222
I81
sVkangaroo
p1223
I179
sVgrowing
p1224
I999
sVothers
p1225
I87
sVsing
p1226
I1045
sVtechnical
p1227
I522
sVinvolved
p1228
I361
sV30
p1229
I269
sVproducts
p1230
I158
sVcontaminants
p1231
I448
sVmakes
p1232
I366
sVinvolves
p1233
I908
sVnamed
p1234
I547
sVformulated
p1235
I1051
sVscales
p1236
I903
sVwin
p1237
I1548
sVoutcomes
p1238
I427
sVmotor
p1239
I817
sVuse
p1240
I102
sVfrom
p1241
I29
sVremains
p1242
I1036
sVgerm
p1243
I855
sVexamination
p1244
I743
sVhistorically
p1245
I1585
sVformally
p1246
I1302
sVon
p1247
I27
sVtay
p1248
I1583
sVcarrying
p1249
I1383
sVwomen
p1250
I857
sVthis
p1251
I39
sVchallenge
p1252
I858
sVwhen
p1253
I43
sVurethral
p1254
I1359
sVthin
p1255
I744
sVisland
p1256
I194
sVcontrol
p1257
I820
sVlinks
p1258
I242
sVpurposes
p1259
I560
sVpieces
p1260
I478
sVhigh
p1261
I746
sVsomething
p1262
I264
sVtan
p1263
I631
sVprograde
p1264
I1017
sVunited
p1265
I154
sVdemocracy
p1266
I1537
sVsix
p1267
I329
sVlocated
p1268
I1321
sVlamp
p1269
I431
sVforest
p1270
I1058
sVanimal
p1271
I873
sVferdinand
p1272
I434
sVmonosyllabic
p1273
I832
sVbuildings
p1274
I750
sVannexed
p1275
I1331
sVphilosophy
p1276
I877
sVfluid
p1277
I1274
sVethnic
p1278
I491
sV1887
p1279
I880
sVmarrow
p1280
I1303
sVambiguous
p1281
I1029
sVwhistle
p1282
I1494
sVlight
p1283
I82
sVcorrespond
p1284
I864
sVallow
p1285
I1504
sVunsolved
p1286
I753
sVproduces
p1287
I442
sVsperm
p1288
I1360
sVincluding
p1289
I101
sVjoanna
p1290
I1526
sVtibooburra
p1291
I1521
sVchemical
p1292
I856
sVouter
p1293
I328
sVdecay
p1294
I377
sVchosen
p1295
I373
sVhariri
p1296
I1519
sVinstruments
p1297
I1589
sVcovered
p1298
I861
sV<
I6
sVdan
p1299
I1518
sVpractice
p1300
I1266
sVfront
p1301
I829
sVday
p1302
I271
sVarticles
p1303
I1109
sVfebruary
p1304
I1515
sVcountries
p1305
I1501
sVfeast
p1306
I1342
sVtrap
p1307
I756
sVsubset
p1308
I981
sVkhachkar
p1309
I1046
sVglobe
p1310
I1554
sVadministrator
p1311
I1207
sVrelated
p1312
I1511
sVsociety
p1313
I571
sVthirteen
p1314
I1031
sVour
p1315
I1132
sVagriculture
p1316
I1170
sVsandy
p1317
I324
sVout
p1318
I74
sVrespects
p1319
I558
sV'
I22
sVperforms
p1320
I1130
sVrhynie
p1321
I887
sVcause
p1322
I202
sVannounced
p1323
I304
sVdictionary
p1324
I1128
sVcompletely
p1325
I1234
sVphilip
p1326
I1520
sVadditional
p1327
I248
sVgeometry
p1328
I802
sVcould
p1329
I1025
sVyarn
p1330
I1221
sVtimes
p1331
I563
sVlength
p1332
I1241
sVretain
p1333
I1527
sVfacilitate
p1334
I638
sVsouth
p1335
I110
sVstorypeople
p1336
I342
sVfertiliser
p1337
I1528
sVefferent
p1338
I671
sVowned
p1339
I1196
sVmanagement
p1340
I997
sVrevealed
p1341
I964
sVhabit
p1342
I318
sVsystem
p1343
I176
sVtheir
p1344
I52
sVattack
p1345
I1601
sVfinal
p1346
I1160
sVacademy
p1347
I1534
sVacquire
p1348
I153
sVbiggest
p1349
I907
sS'UNK'
p1350
I2
sVsteel
p1351
I761
sVben
p1352
I1503
sVsee
p1353
I1578
sVdistinguished
p1354
I947
sVfalse
p1355
I760
sVfawkes
p1356
I657
sVtabs
p1357
I1148
sVhave
p1358
I59
sVneed
p1359
I493
sVblockbuster
p1360
I1015
sVlinked
p1361
I1475
sVsings
p1362
I1197
sVdocuments
p1363
I633
sVistd
p1364
I754
sVdishes
p1365
I749
sVgravity
p1366
I531
sVincentive
p1367
I404
sVinstance
p1368
I1477
sV320
p1369
I1478
sVwhich
p1370
I32
sVsubject
p1371
I546
sVworldwide
p1372
I1012
sVfuels
p1373
I797
sVpetrol
p1374
I1482
sVwho
p1375
I48
sVmoths
p1376
I1052
sVprisoner
p1377
I1217
sVwhy
p1378
I406
sVdisease
p1379
I668
sVdent
p1380
I1491
sVatmosphere
p1381
I1493
sVtext
p1382
I283
sVhamlet
p1383
I553
sVthicker
p1384
I748
sVejaculates
p1385
I1212
sVpromote
p1386
I925
sVbased
p1387
I171
sVknowledge
p1388
I229
sV(
I36
sVwinner
p1389
I1258
sVshould
p1390
I190
sVbombings
p1391
I1278
sVfuel
p1392
I323
sVcommunist
p1393
I1194
sVregularly
p1394
I1243
sVmeans
p1395
I122
sVbear
p1396
I662
sV120
p1397
I1574
sVwords
p1398
I793
sVtiming
p1399
I789
sVprocesses
p1400
I655
sVorgan
p1401
I1283
sVdenmark
p1402
I1287
sVteams
p1403
I562
sVshe
p1404
I471
sVtunes
p1405
I1584
sVhosei
p1406
I1005
sVnavarre
p1407
I1288
sVmultiplying
p1408
I765
sVexists
p1409
I255
sVprayers
p1410
I1588
sVoperates
p1411
I539
sVcomputer
p1412
I236
sVtextiles
p1413
I764
sVcloses
p1414
I774
sVsuperhero
p1415
I1158
sVreform
p1416
I673
sVmoondyne
p1417
I1000
sVgenius
p1418
I772
sVstate
p1419
I84
sVmembrane
p1420
I1161
sVcrude
p1421
I790
sVability
p1422
I1246
sVopening
p1423
I1247
sVimportance
p1424
I1541
sVcourtyard
p1425
I1545
sVjob
p1426
I325
sVjoe
p1427
I986
sVgroup
p1428
I409
sVinstant
p1429
I1550
sVlimits
p1430
I376
sVcareer
p1431
I1551
sVtaking
p1432
I513
sVequal
p1433
I266
sVdrug
p1434
I479
sVetc
p1435
I186
sVrevitalized
p1436
I1552
sVgrail
p1437
I587
sVconquered
p1438
I1253
sVapril
p1439
I441
sVcopies
p1440
I826
sVwaste
p1441
I1021
sV>
I5
sVvinci
p1442
I577
sVclimate
p1443
I1555
sVgeneral
p1444
I187
sVgunpowder
p1445
I506
sVspain
p1446
I505
sVwill
p1447
I49
sVrotator
p1448
I990
sVmedicinal
p1449
I767
sVlayer
p1450
I582
sVve
p1451
I1260
sValmost
p1452
I1261
sVneuron
p1453
I589
sVsurface
p1454
I965
sVarabic
p1455
I487
sVsuperheroes
p1456
I1131
sVcapture
p1457
I1242
sV)
I35
sVbegan
p1458
I1379
sVromance
p1459
I962
sVparts
p1460
I252
sVunderground
p1461
I977
sVterrorism
p1462
I503
sVdifficult
p1463
I94
sVmaterial
p1464
I854
sVeccentric
p1465
I1040
sVstudent
p1466
I839
sVfrequently
p1467
I838
sVcollar
p1468
I1389
sVargue
p1469
I468
sVcenter
p1470
I467
sVi
I134
sVwell
p1471
I105
sVthought
p1472
I91
sVsets
p1473
I391
sVrestore
p1474
I1393
sVheavily
p1475
I1104
sVstored
p1476
I1394
sVpaul
p1477
I1257
sVweb
p1478
I836
sVmandrakesoft
p1479
I923
sVfield
p1480
I1084
sVlake
p1481
I930
sVtransparent
p1482
I618
sVadd
p1483
I1250
sVbook
p1484
I163
sVcrack
p1485
I492
sVresolved
p1486
I615
sVgovernment
p1487
I191
sVfive
p1488
I1377
sVknot
p1489
I927
sVpress
p1490
I1296
sVnecessary
p1491
I956
sVlike
p1492
I344
sVexploiting
p1493
I758
sVbecome
p1494
I69
sVstarred
p1495
I1290
sVemmy
p1496
I1372
sVpage
p1497
I348
sVbecause
p1498
I852
sVclassical
p1499
I445
sVchurch
p1500
I136
sValive
p1501
I1032
sVhair
p1502
I752
sVdaylight
p1503
I182
sVgrowth
p1504
I286
sVcopra
p1505
I848
sVhome
p1506
I1030
sVhappens
p1507
I1280
sVseparate
p1508
I1445
sVdoes
p1509
I1187
sVlocate
p1510
I1275
sVreaching
p1511
I1449
sVhost
p1512
I1244
sValthough
p1513
I320
sVoffset
p1514
I1054
sVinstinct
p1515
I846
sVdescribed
p1516
I343
sVloans
p1517
I1451
sVtelevision
p1518
I1352
sVstage
p1519
I865
sVabout
p1520
I63
sVrare
p1521
I608
sVcarried
p1522
I607
sVrecognized
p1523
I1456
sVevoke
p1524
I747
sVschneiderian
p1525
I866
sVreptile
p1526
I745
sVown
p1527
I333
sVletters
p1528
I840
sVendoclita
p1529
I1057
sVguard
p1530
I592
sVtiny
p1531
I223
sVartists
p1532
I299
sVlarvae
p1533
I1056
sVrestricts
p1534
I1208
sVinner
p1535
I1228
sVfrenulum
p1536
I1230
sVnaturally
p1537
I370
sVresembled
p1538
I1397
sVnorth
p1539
I284
sVinterest
p1540
I1502
sVbut
p1541
I30
sVear
p1542
I338
sVeat
p1543
I415
sVhe
p1544
I45
sVmade
p1545
I98
sVplaces
p1546
I1009
sVwhether
p1547
I778
sVdangerous
p1548
I401
sVcells
p1549
I843
sVofficial
p1550
I1411
sVhosting
p1551
I1237
sVsigned
p1552
I371
sVvenetian
p1553
I1413
sVrecord
p1554
I970
sVstories
p1555
I1171
sVruling
p1556
I521
sVproblem
p1557
I781
sVgharial
p1558
I780
sVfunctions
p1559
I254
sVvariety
p1560
I541
sVcorporation
p1561
I904
sV44
p1562
I1419
sVattacked
p1563
I1235
sV40
p1564
I410
sVother
p1565
I89
sVsick
p1566
I516
sVderails
p1567
I1422
sVconvicts
p1568
I913
sVjune
p1569
I189
sVanimosity
p1570
I770
sVfriends
p1571
I1001
sVmozart
p1572
I355
sVfactors
p1573
I804
sVrule
p1574
I1434
sVcompete
p1575
I994
sVsyllabi
p1576
I722
sV8th
p1577
I461
ssS'decoder'
p1578
(dp1579
I0
g224
sI1
g543
sI2
g1350
sI3
V.
sI4
Vs
sI5
V>
sI6
V<
sI7
V,
sI8
g323
sI9
g756
sI10
g594
sI11
g300
sI12
Va
sI13
g819
sI14
g296
sI15
g576
sI16
g1155
sI17
g760
sI18
g356
sI19
g370
sI20
g1047
sI21
V-
sI22
V'
sI23
g782
sI24
g297
sI25
g787
sI26
g1150
sI27
g1247
sI28
g786
sI29
g1241
sI30
g1541
sI31
V`
sI32
g1370
sI33
g1139
sI34
g1003
sI35
V)
sI36
V(
sI37
g1034
sI38
g303
sI39
g1251
sI40
g925
sI41
g65
sI42
g482
sI43
g1253
sI44
g143
sI45
g1544
sI46
g652
sI47
g1009
sI48
g1375
sI49
g1447
sI50
g334
sI51
g789
sI52
g1344
sI53
g1138
sI54
g347
sI55
g518
sI56
g128
sI57
g369
sI58
g560
sI59
g1358
sI60
g880
sI61
g1178
sI62
g648
sI63
g1520
sI64
g683
sI65
g582
sI66
g876
sI67
g590
sI68
g977
sI69
g1494
sI70
g773
sI71
g278
sI72
g273
sI73
g496
sI74
g1318
sI75
g558
sI76
V:
sI77
g1038
sI78
g398
sI79
g628
sI80
g523
sI81
g1222
sI82
g1283
sI83
V;
sI84
g1419
sI85
g563
sI86
g112
sI87
g1225
sI88
g266
sI89
g1565
sI90
g896
sI91
g1472
sI92
g307
sI93
g922
sI94
g1463
sI95
g1162
sI96
g1208
sI97
g1091
sI98
g1545
sI99
g374
sI100
g45
sI101
g1289
sI102
g1240
sI103
g1109
sI104
g690
sI105
g1471
sI106
g302
sI107
g388
sI108
g12
sI109
g461
sI110
g1335
sI111
g122
sI112
g78
sI113
g351
sI114
g277
sI115
g844
sI116
g834
sI117
g506
sI118
g937
sI119
g802
sI120
g251
sI121
V1
sI122
g1395
sI123
g1099
sI124
g580
sI125
g1039
sI126
g623
sI127
g947
sI128
g796
sI129
g544
sI130
g160
sI131
g1126
sI132
g328
sI133
g1078
sI134
Vi
sI135
g917
sI136
g1500
sI137
g400
sI138
g851
sI139
g324
sI140
g1193
sI141
g726
sI142
g681
sI143
g935
sI144
g159
sI145
g1117
sI146
g260
sI147
g30
sI148
g325
sI149
g293
sI150
g516
sI151
g439
sI152
g771
sI153
g1348
sI154
g1265
sI155
g447
sI156
g129
sI157
g346
sI158
g1230
sI159
g1007
sI160
g1077
sI161
g421
sI162
g44
sI163
g1484
sI164
g1131
sI165
g1032
sI166
V0
sI167
g172
sI168
g336
sI169
g488
sI170
g830
sI171
g1387
sI172
g101
sI173
g1087
sI174
g291
sI175
g604
sI176
g1343
sI177
g975
sI178
g1137
sI179
g1223
sI180
g257
sI181
g980
sI182
g1503
sI183
g1011
sI184
g245
sI185
g123
sI186
g1435
sI187
g1444
sI188
g881
sI189
g1569
sI190
g1390
sI191
g1487
sI192
g1041
sI193
g764
sI194
g1256
sI195
g102
sI196
g810
sI197
g1072
sI198
g97
sI199
g627
sI200
g638
sI201
g281
sI202
g1322
sI203
g888
sI204
g309
sI205
g622
sI206
g1194
sI207
V3
sI208
g1147
sI209
g1183
sI210
g567
sI211
g474
sI212
g492
sI213
g349
sI214
g491
sI215
V6
sI216
g169
sI217
g953
sI218
g721
sI219
g116
sI220
g791
sI221
g483
sI222
g927
sI223
g1531
sI224
g569
sI225
g399
sI226
g818
sI227
g1010
sI228
g705
sI229
g1388
sI230
g898
sI231
g919
sI232
g26
sI233
g1086
sI234
g1027
sI235
g438
sI236
g1412
sI237
g139
sI238
g1071
sI239
g1158
sI240
g89
sI241
g142
sI242
g1258
sI243
g832
sI244
g365
sI245
g1053
sI246
g484
sI247
g911
sI248
g1327
sI249
g241
sI250
g80
sI251
g207
sI252
g1460
sI253
g682
sI254
g1559
sI255
g1409
sI256
g948
sI257
g1061
sI258
g155
sI259
g879
sI260
g283
sI261
g96
sI262
g890
sI263
g816
sI264
g1262
sI265
g1161
sI266
g1433
sI267
g432
sI268
g788
sI269
g1229
sI270
g420
sI271
g1302
sI272
g552
sI273
V2
sI274
g602
sI275
g1042
sI276
g719
sI277
g575
sI278
g570
sI279
g63
sI280
g1068
sI281
g842
sI282
g360
sI283
g1382
sI284
g1539
sI285
g55
sI286
g1504
sI287
g636
sI288
g271
sI289
g276
sI290
g780
sI291
g440
sI292
g431
sI293
g430
sI294
g858
sI295
g378
sI296
g762
sI297
g416
sI298
g1031
sI299
g1532
sI300
g589
sI301
g807
sI302
g459
sI303
g267
sI304
g1323
sI305
g1045
sI306
g551
sI307
g308
sI308
g672
sI309
g513
sI310
g519
sI311
g311
sI312
g254
sI313
g49
sI314
g1073
sI315
g226
sI316
g732
sI317
g746
sI318
g1342
sI319
g286
sI320
g1513
sI321
g869
sI322
g530
sI323
g1392
sI324
g1317
sI325
g1426
sI326
g631
sI327
g173
sI328
g1293
sI329
g1267
sI330
g185
sI331
g475
sI332
g331
sI333
g1527
sI334
g653
sI335
g371
sI336
Vn
sI337
g768
sI338
g1542
sI339
g546
sI340
g668
sI341
V%
sI342
g1336
sI343
g1516
sI344
g1492
sI345
g555
sI346
g223
sI347
g835
sI348
g1497
sI349
g502
sI350
g1043
sI351
g1192
sI352
g923
sI353
g16
sI354
g675
sI355
g1572
sI356
g37
sI357
g527
sI358
g487
sI359
g581
sI360
g813
sI361
g1228
sI362
g548
sI363
g1148
sI364
g470
sI365
g40
sI366
g1232
sI367
g828
sI368
g845
sI369
g1168
sI370
g1537
sI371
g1552
sI372
g753
sI373
g1295
sI374
g406
sI375
g189
sI376
g1430
sI377
g1294
sI378
g171
sI379
g211
sI380
g716
sI381
g363
sI382
g79
sI383
g321
sI384
g612
sI385
g137
sI386
g688
sI387
g243
sI388
g677
sI389
g859
sI390
g678
sI391
g1473
sI392
g799
sI393
g1028
sI394
g274
sI395
g463
sI396
g1079
sI397
g437
sI398
g120
sI399
g972
sI400
Vt
sI401
g1548
sI402
g201
sI403
g998
sI404
g1367
sI405
g717
sI406
g1378
sI407
g857
sI408
g1153
sI409
g1428
sI410
g1564
sI411
g1119
sI412
g1008
sI413
g294
sI414
g1018
sI415
g1543
sI416
g289
sI417
g547
sI418
g657
sI419
g248
sI420
g495
sI421
g874
sI422
g1188
sI423
g428
sI424
g134
sI425
g269
sI426
g464
sI427
g1238
sI428
g579
sI429
g161
sI430
g906
sI431
g1269
sI432
g340
sI433
g591
sI434
g1272
sI435
g770
sI436
g812
sI437
g785
sI438
g1182
sI439
g465
sI440
g170
sI441
g1439
sI442
g1287
sI443
g490
sI444
g174
sI445
g1499
sI446
g983
sI447
g493
sI448
g1231
sI449
g90
sI450
g387
sI451
g1048
sI452
g694
sI453
g1064
sI454
g950
sI455
g584
sI456
g713
sI457
g637
sI458
g651
sI459
g1110
sI460
g540
sI461
g1577
sI462
g471
sI463
g396
sI464
g304
sI465
g1172
sI466
g376
sI467
g1470
sI468
g1469
sI469
g386
sI470
g1152
sI471
g1404
sI472
g462
sI473
g272
sI474
g512
sI475
g14
sI476
g60
sI477
g815
sI478
g1260
sI479
g1434
sI480
g419
sI481
g722
sI482
g515
sI483
g64
sI484
g1058
sI485
g77
sI486
g757
sI487
g1455
sI488
g640
sI489
g111
sI490
g83
sI491
g1278
sI492
g1485
sI493
g1359
sI494
g253
sI495
g952
sI496
g700
sI497
g684
sI498
g154
sI499
g766
sI500
g141
sI501
g674
sI502
g305
sI503
g1462
sI504
g284
sI505
g1446
sI506
g1445
sI507
g92
sI508
g901
sI509
Vx
sI510
g1111
sI511
g912
sI512
g62
sI513
g1432
sI514
g184
sI515
g22
sI516
g1566
sI517
g1160
sI518
g498
sI519
g494
sI520
g214
sI521
g1556
sI522
g1227
sI523
g317
sI524
g1198
sI525
g1215
sI526
g458
sI527
g848
sI528
g699
sI529
g966
sI530
g1216
sI531
g1366
sI532
g1067
sI533
g933
sI534
g748
sI535
g1171
sI536
g157
sI537
g39
sI538
g230
sI539
g1411
sI540
g887
sI541
g1560
sI542
g1185
sI543
g453
sI544
V9
sI545
g1120
sI546
g1371
sI547
g1234
sI548
g256
sI549
g69
sI550
g1143
sI551
g1133
sI552
g1020
sI553
g1383
sI554
g238
sI555
g1017
sI556
g1149
sI557
g585
sI558
g1319
sI559
g1211
sI560
g1259
sI561
g84
sI562
g1403
sI563
g1331
sI564
g1203
sI565
g1096
sI566
g392
sI567
g918
sI568
g715
sI569
g1055
sI570
g1015
sI571
g1313
sI572
g338
sI573
g167
sI574
g219
sI575
g971
sI576
g394
sI577
g1442
sI578
g963
sI579
Ve
sI580
g318
sI581
g955
sI582
g1450
sI583
g976
sI584
g755
sI585
g330
sI586
g752
sI587
g1437
sI588
g1128
sI589
g1453
sI590
g850
sI591
g70
sI592
g1530
sI593
g841
sI594
g556
sI595
g54
sI596
g846
sI597
g46
sI598
g150
sI599
g852
sI600
g853
sI601
g43
sI602
g41
sI603
g862
sI604
g15
sI605
g72
sI606
g825
sI607
g1522
sI608
g1521
sI609
g945
sI610
g94
sI611
g191
sI612
g95
sI613
g98
sI614
g104
sI615
g1486
sI616
g798
sI617
g931
sI618
g1482
sI619
g783
sI620
g132
sI621
g777
sI622
g736
sI623
g1004
sI624
g981
sI625
g368
sI626
g608
sI627
g613
sI628
g1065
sI629
g616
sI630
g389
sI631
g1263
sI632
g355
sI633
g1363
sI634
g342
sI635
g199
sI636
g765
sI637
g1040
sI638
g1334
sI639
g288
sI640
g603
sI641
g596
sI642
g424
sI643
g436
sI644
g442
sI645
g452
sI646
g1205
sI647
g574
sI648
g1101
sI649
g1191
sI650
g559
sI651
g557
sI652
g1159
sI653
g1164
sI654
g1123
sI655
g1400
sI656
g1132
sI657
g1356
sI658
g1220
sI659
g1029
sI660
g212
sI661
g706
sI662
g1396
sI663
g729
sI664
g985
sI665
g990
sI666
g222
sI667
g204
sI668
g1379
sI669
g210
sI670
g88
sI671
g1338
sI672
g984
sI673
g1416
sI674
g231
sI675
g208
sI676
g426
sI677
g720
sI678
g724
sI679
g87
sI680
g51
sI681
g597
sI682
g601
sI683
g727
sI684
g454
sI685
g867
sI686
g745
sI687
g187
sI688
g31
sI689
g38
sI690
g870
sI691
g550
sI692
g866
sI693
g460
sI694
g180
sI695
g501
sI696
g747
sI697
g202
sI698
g572
sI699
g415
sI700
Vp
sI701
g401
sI702
g71
sI703
g115
sI704
g689
sI705
g339
sI706
g335
sI707
g322
sI708
g792
sI709
g864
sI710
g121
sI711
g402
sI712
g124
sI713
g125
sI714
g292
sI715
g152
sI716
g285
sI717
g50
sI718
g800
sI719
g801
sI720
g57
sI721
g232
sI722
g1576
sI723
g345
sI724
g826
sI725
g634
sI726
g769
sI727
g227
sI728
g166
sI729
g614
sI730
g529
sI731
g393
sI732
g606
sI733
g714
sI734
g73
sI735
g108
sI736
g11
sI737
g486
sI738
g1200
sI739
g1221
sI740
g805
sI741
g921
sI742
g182
sI743
g1244
sI744
g1255
sI745
g1526
sI746
g1261
sI747
g1524
sI748
g1384
sI749
g1365
sI750
g1274
sI751
g987
sI752
g1502
sI753
g1286
sI754
g1364
sI755
g993
sI756
g1307
sI757
g994
sI758
g1493
sI759
g878
sI760
g1355
sI761
g1351
sI762
g1207
sI763
g1122
sI764
g1413
sI765
g1408
sI766
g882
sI767
g1449
sI768
g1097
sI769
g1141
sI770
g1570
sI771
g163
sI772
g1418
sI773
g1165
sI774
g1414
sI775
g1195
sI776
g1184
sI777
g1002
sI778
g1547
sI779
g1189
sI780
g1558
sI781
g1557
sI782
g934
sI783
g1190
sI784
g234
sI785
g194
sI786
g949
sI787
g996
sI788
g188
sI789
g1399
sI790
g1421
sI791
g968
sI792
g209
sI793
g1398
sI794
g728
sI795
g229
sI796
g730
sI797
g1373
sI798
g246
sI799
g235
sI800
g213
sI801
g873
sI802
g1328
sI803
g1057
sI804
g1573
sI805
g534
sI806
g1105
sI807
g573
sI808
g1094
sI809
g1157
sI810
g1084
sI811
g1181
sI812
g479
sI813
g1187
sI814
g1081
sI815
g1197
sI816
g625
sI817
g1239
sI818
g704
sI819
g645
sI820
g1257
sI821
g656
sI822
g659
sI823
g663
sI824
g665
sI825
g372
sI826
g1440
sI827
g661
sI828
g1026
sI829
g1301
sI830
g1022
sI831
g696
sI832
g1273
sI833
g1112
sI834
g61
sI835
g149
sI836
g1478
sI837
g118
sI838
g1467
sI839
g1466
sI840
g1528
sI841
g847
sI842
g52
sI843
g1549
sI844
g908
sI845
g915
sI846
g1515
sI847
g942
sI848
g1505
sI849
g537
sI850
g532
sI851
g240
sI852
g1498
sI853
g403
sI854
g1464
sI855
g1243
sI856
g1292
sI857
g1250
sI858
g1252
sI859
g1044
sI860
g405
sI861
g1298
sI862
g391
sI863
g904
sI864
g1284
sI865
g1519
sI866
g1525
sI867
g382
sI868
g1024
sI869
g821
sI870
g664
sI871
g67
sI872
g379
sI873
g1271
sI874
g909
sI875
g86
sI876
g671
sI877
g1276
sI878
g364
sI879
g871
sI880
g1279
sI881
g646
sI882
g168
sI883
g644
sI884
g524
sI885
g499
sI886
g861
sI887
g1321
sI888
g295
sI889
g856
sI890
g18
sI891
g1136
sI892
g1103
sI893
g25
sI894
g883
sI895
g877
sI896
g539
sI897
g1107
sI898
g1127
sI899
g1124
sI900
g1118
sI901
g497
sI902
g1170
sI903
g1236
sI904
g1561
sI905
g422
sI906
g100
sI907
g1349
sI908
g1233
sI909
g429
sI910
g59
sI911
g341
sI912
g617
sI913
g1568
sI914
g986
sI915
g1066
sI916
g872
sI917
g630
sI918
g361
sI919
g24
sI920
g27
sI921
g56
sI922
g999
sI923
g1479
sI924
g225
sI925
g1386
sI926
g744
sI927
g1489
sI928
g113
sI929
g939
sI930
g1481
sI931
g926
sI932
g326
sI933
g992
sI934
g200
sI935
g989
sI936
g1046
sI937
g803
sI938
g144
sI939
g244
sI940
g247
sI941
g790
sI942
g932
sI943
g252
sI944
g892
sI945
g146
sI946
g135
sI947
g1354
sI948
g1113
sI949
g946
sI950
g973
sI951
g817
sI952
g749
sI953
g320
sI954
g316
sI955
g310
sI956
g1491
sI957
g702
sI958
g781
sI959
g703
sI960
g107
sI961
g165
sI962
g1459
sI963
g586
sI964
g1341
sI965
g1454
sI966
g711
sI967
g109
sI968
g712
sI969
g759
sI970
g1554
sI971
g32
sI972
g1176
sI973
g1175
sI974
g145
sI975
g1179
sI976
g138
sI977
g1461
sI978
g28
sI979
g33
sI980
g467
sI981
g1308
sI982
g221
sI983
g216
sI984
g1115
sI985
g508
sI986
g1427
sI987
g181
sI988
g541
sI989
g183
sI990
g1448
sI991
g535
sI992
g533
sI993
V$
sI994
g1575
sI995
g1129
sI996
g528
sI997
g1340
sI998
g525
sI999
g1224
sI1000
g1417
sI1001
g1571
sI1002
g566
sI1003
g205
sI1004
g503
sI1005
g1406
sI1006
g1098
sI1007
g1196
sI1008
g434
sI1009
g1546
sI1010
g110
sI1011
g268
sI1012
g1372
sI1013
g58
sI1014
g68
sI1015
g1360
sI1016
g76
sI1017
g1264
sI1018
g383
sI1019
g380
sI1020
g279
sI1021
g1441
sI1022
g891
sI1023
g287
sI1024
g93
sI1025
g1329
sI1026
g367
sI1027
g298
sI1028
g301
sI1029
g1281
sI1030
g1506
sI1031
g1314
sI1032
g1501
sI1033
g131
sI1034
g314
sI1035
g408
sI1036
g1242
sI1037
g1202
sI1038
g1204
sI1039
g449
sI1040
g1465
sI1041
g875
sI1042
g1213
sI1043
g443
sI1044
g1218
sI1045
g1226
sI1046
g1309
sI1047
g433
sI1048
g1114
sI1049
g427
sI1050
g423
sI1051
g1235
sI1052
g1376
sI1053
g262
sI1054
g1514
sI1055
g418
sI1056
g1533
sI1057
g1529
sI1058
g1270
sI1059
g809
sI1060
g620
sI1061
g914
sI1062
g960
sI1063
g961
sI1064
g967
sI1065
g824
sI1066
g965
sI1067
g1089
sI1068
g658
sI1069
g978
sI1070
g793
sI1071
g666
sI1072
g667
sI1073
g905
sI1074
g833
sI1075
g741
sI1076
g839
sI1077
g669
sI1078
g670
sI1079
g1085
sI1080
g643
sI1081
g840
sI1082
g956
sI1083
g958
sI1084
g1480
sI1085
g938
sI1086
g609
sI1087
g1063
sI1088
g618
sI1089
g940
sI1090
g731
sI1091
g784
sI1092
g624
sI1093
g1080
sI1094
g779
sI1095
g629
sI1096
g632
sI1097
g1056
sI1098
g1173
sI1099
g916
sI1100
g673
sI1101
g611
sI1102
g902
sI1103
g1023
sI1104
g1475
sI1105
g250
sI1106
g863
sI1107
g554
sI1108
g865
sI1109
g1303
sI1110
g687
sI1111
g893
sI1112
g718
sI1113
g692
sI1114
g723
sI1115
g685
sI1116
g995
sI1117
g708
sI1118
g725
sI1119
g895
sI1120
g849
sI1121
g885
sI1122
g734
sI1123
g425
sI1124
g697
sI1125
g900
sI1126
V8
sI1127
g148
sI1128
g1324
sI1129
g1060
sI1130
g1320
sI1131
g1456
sI1132
g1315
sI1133
g333
sI1134
g619
sI1135
g332
sI1136
g445
sI1137
g635
sI1138
g1069
sI1139
g450
sI1140
g175
sI1141
g957
sI1142
g920
sI1143
g686
sI1144
g237
sI1145
g270
sI1146
g385
sI1147
g750
sI1148
g1357
sI1149
g969
sI1150
V7
sI1151
g1000
sI1152
g1001
sI1153
V#
sI1154
g352
sI1155
g505
sI1156
g404
sI1157
g407
sI1158
g1415
sI1159
g607
sI1160
g1346
sI1161
g1420
sI1162
g190
sI1163
g662
sI1164
g228
sI1165
g1186
sI1166
g99
sI1167
g564
sI1168
g595
sI1169
g478
sI1170
g1316
sI1171
g1555
sI1172
g105
sI1173
g485
sI1174
g1177
sI1175
g489
sI1176
g522
sI1177
g280
sI1178
g1174
sI1179
g924
sI1180
g899
sI1181
g1146
sI1182
g910
sI1183
g510
sI1184
g455
sI1185
g66
sI1186
g164
sI1187
g1509
sI1188
g1163
sI1189
g907
sI1190
g82
sI1191
g855
sI1192
g1092
sI1193
g1075
sI1194
g1393
sI1195
g860
sI1196
g1339
sI1197
g1362
sI1198
g366
sI1199
g375
sI1200
g29
sI1201
g928
sI1202
g1201
sI1203
g136
sI1204
g13
sI1205
g598
sI1206
g549
sI1207
g1311
sI1208
g1534
sI1209
g886
sI1210
g843
sI1211
g259
sI1212
g1385
sI1213
g315
sI1214
g177
sI1215
g837
sI1216
g249
sI1217
g1377
sI1218
g500
sI1219
g19
sI1220
V!
sI1221
g1330
sI1222
g982
sI1223
g446
sI1224
g299
sI1225
g709
sI1226
g290
sI1227
g1013
sI1228
g1535
sI1229
g258
sI1230
g1536
sI1231
g1005
sI1232
g34
sI1233
g312
sI1234
g1325
sI1235
g1563
sI1236
g42
sI1237
g1551
sI1238
g47
sI1239
g282
sI1240
g275
sI1241
g1332
sI1242
g1457
sI1243
g1394
sI1244
g1512
sI1245
g943
sI1246
g1422
sI1247
g1423
sI1248
g776
sI1249
g944
sI1250
g1483
sI1251
Vu
sI1252
g795
sI1253
g1438
sI1254
g117
sI1255
g680
sI1256
g804
sI1257
g1477
sI1258
g1389
sI1259
g162
sI1260
g1451
sI1261
g1452
sI1262
g695
sI1263
g158
sI1264
g151
sI1265
g797
sI1266
g1300
sI1267
g936
sI1268
V5
sI1269
g147
sI1270
g951
sI1271
g772
sI1272
g811
sI1273
g193
sI1274
g1277
sI1275
g1510
sI1276
g974
sI1277
g233
sI1278
g1391
sI1279
g751
sI1280
g1507
sI1281
g964
sI1282
g220
sI1283
g1401
sI1284
g218
sI1285
g962
sI1286
g215
sI1287
g1402
sI1288
g1407
sI1289
g763
sI1290
g1495
sI1291
g103
sI1292
g767
sI1293
g106
sI1294
g203
sI1295
g814
sI1296
g1490
sI1297
g553
sI1298
g448
sI1299
g384
sI1300
g1059
sI1301
Vb
sI1302
g1246
sI1303
g1280
sI1304
g655
sI1305
g1102
sI1306
g1054
sI1307
g359
sI1308
g466
sI1309
g1090
sI1310
g357
sI1311
g654
sI1312
g633
sI1313
g354
sI1314
g390
sI1315
g353
sI1316
g520
sI1317
g1135
sI1318
g1100
sI1319
g641
sI1320
g377
sI1321
g1268
sI1322
g1083
sI1323
g480
sI1324
g1151
sI1325
g414
sI1326
g373
sI1327
g517
sI1328
g350
sI1329
g381
sI1330
g660
sI1331
g1275
sI1332
g1140
sI1333
g451
sI1334
g1130
sI1335
g593
sI1336
g542
sI1337
g1217
sI1338
g1021
sI1339
g195
sI1340
g397
sI1341
g1070
sI1342
g1306
sI1343
g337
sI1344
g1125
sI1345
g456
sI1346
g1050
sI1347
g1088
sI1348
g615
sI1349
g1144
sI1350
g395
sI1351
g343
sI1352
g1518
sI1353
g186
sI1354
g1167
sI1355
g536
sI1356
g1106
sI1357
g1074
sI1358
g1095
sI1359
g1254
sI1360
g1288
sI1361
g531
sI1362
g348
sI1363
g626
sI1364
g1180
sI1365
g1121
sI1366
g588
sI1367
g592
sI1368
g693
sI1369
g913
sI1370
g481
sI1371
g476
sI1372
g1496
sI1373
g126
sI1374
g477
sI1375
g469
sI1376
g1082
sI1377
g1488
sI1378
g610
sI1379
g1458
sI1380
g1210
sI1381
g639
sI1382
g1214
sI1383
g1249
sI1384
g737
sI1385
g930
sI1386
g133
sI1387
g929
sI1388
g130
sI1389
g1468
sI1390
g649
sI1391
g1076
sI1392
g48
sI1393
g1474
sI1394
g1476
sI1395
g600
sI1396
g119
sI1397
g1538
sI1398
g599
sI1399
g806
sI1400
g472
sI1401
g473
sI1402
g114
sI1403
g362
sI1404
g808
sI1405
g820
sI1406
g1019
sI1407
g822
sI1408
g538
sI1409
g265
sI1410
g571
sI1411
g1550
sI1412
g526
sI1413
g1553
sI1414
g1104
sI1415
g568
sI1416
g761
sI1417
g206
sI1418
g854
sI1419
g1562
sI1420
g36
sI1421
g35
sI1422
g1567
sI1423
g823
sI1424
g562
sI1425
g561
sI1426
g889
sI1427
g1108
sI1428
g545
sI1429
g21
sI1430
g20
sI1431
g17
sI1432
g1116
sI1433
g884
sI1434
g1574
sI1435
g444
sI1436
g868
sI1437
g894
sI1438
g1134
sI1439
g521
sI1440
g53
sI1441
g587
sI1442
g1169
sI1443
g1166
sI1444
g91
sI1445
g1508
sI1446
g827
sI1447
g583
sI1448
g85
sI1449
g1511
sI1450
g829
sI1451
g1517
sI1452
g831
sI1453
g504
sI1454
g23
sI1455
g74
sI1456
g1523
sI1457
g1156
sI1458
g507
sI1459
g903
sI1460
g838
sI1461
g1093
sI1462
g509
sI1463
g1145
sI1464
g514
sI1465
g578
sI1466
g577
sI1467
g897
sI1468
g1206
sI1469
g970
sI1470
g1209
sI1471
g261
sI1472
g1035
sI1473
g997
sI1474
g358
sI1475
g1361
sI1476
g1199
sI1477
g1368
sI1478
g1369
sI1479
g468
sI1480
g733
sI1481
g676
sI1482
g1374
sI1483
g264
sI1484
g263
sI1485
g735
sI1486
g991
sI1487
g1154
sI1488
g565
sI1489
g738
sI1490
g255
sI1491
g1380
sI1492
g739
sI1493
g1381
sI1494
g1282
sI1495
g740
sI1496
g605
sI1497
g742
sI1498
g743
sI1499
g979
sI1500
g242
sI1501
g1305
sI1502
g1540
sI1503
g1352
sI1504
g1285
sI1505
g679
sI1506
g327
sI1507
g319
sI1508
g691
sI1509
g329
sI1510
g698
sI1511
g1312
sI1512
g313
sI1513
g1016
sI1514
g1014
sI1515
g1304
sI1516
g306
sI1517
g701
sI1518
g1299
sI1519
g1296
sI1520
g1326
sI1521
g1291
sI1522
g1012
sI1523
g707
sI1524
g1006
sI1525
g344
sI1526
g1290
sI1527
g1333
sI1528
g1337
sI1529
g127
sI1530
g1142
sI1531
g1025
sI1532
g710
sI1533
g1030
sI1534
g1347
sI1535
g239
sI1536
g236
sI1537
g1266
sI1538
g413
sI1539
g417
sI1540
g1052
sI1541
g1424
sI1542
g774
sI1543
g1051
sI1544
g775
sI1545
g1425
sI1546
g179
sI1547
g178
sI1548
g1237
sI1549
g176
sI1550
g1429
sI1551
g1431
sI1552
g1436
sI1553
g778
sI1554
g1310
sI1555
g1443
sI1556
g836
sI1557
Vc
sI1558
g941
sI1559
g435
sI1560
g1062
sI1561
g156
sI1562
g621
sI1563
g1219
sI1564
g153
sI1565
g441
sI1566
g988
sI1567
g1212
sI1568
g81
sI1569
g192
sI1570
g457
sI1571
g412
sI1572
g1036
sI1573
g1037
sI1574
g1397
sI1575
g754
sI1576
g1033
sI1577
g758
sI1578
g1353
sI1579
g217
sI1580
g140
sI1581
g511
sI1582
g75
sI1583
g1248
sI1584
g1405
sI1585
g1245
sI1586
g650
sI1587
g1049
sI1588
g1410
sI1589
g1297
sI1590
g647
sI1591
g642
sI1592
g959
sI1593
g409
sI1594
g794
sI1595
g410
sI1596
g411
sI1597
g198
sI1598
g197
sI1599
g196
sI1600
g954
sI1601
g1345
ssS'max_features'
p1580
I9997
sS'n_features'
p1581
I1602
sb.